target datalayout = "e-m:e-p270:32:32-p271:32:32-p272:64:64-i64:64-i128:128-f80:128-n8:16:32:64-S128"
target triple = "x86_64-pc-linux-gnu"

%struct.mbedtls_pk_info_t = type { i32, ptr, ptr, ptr, ptr, ptr, ptr, ptr, ptr, ptr, ptr, ptr }
%struct.mbedtls_pk_context = type { ptr, ptr }

; Function Attrs: inlinehint mustprogress uwtable
define internal noundef i32 @_ZL17pk_hashlen_helper17mbedtls_md_type_tPm(i32 noundef %0, ptr noundef %1) #3 {
  %3 = alloca i32, align 4
  %4 = alloca i32, align 4
  %5 = alloca ptr, align 8
  %6 = alloca ptr, align 8
  %7 = alloca i32, align 4
  store i32 %0, ptr %4, align 4, !tbaa !20
  store ptr %1, ptr %5, align 8, !tbaa !27
  call void @llvm.lifetime.start.p0(i64 8, ptr %6) #5
  %8 = load ptr, ptr %5, align 8, !tbaa !27
  %9 = load i64, ptr %8, align 8, !tbaa !23
  %10 = icmp ne i64 %9, 0
  br i1 %10, label %11, label %12

11:                                               ; preds = %2
  store i32 0, ptr %3, align 4
  store i32 1, ptr %7, align 4
  br label %22

12:                                               ; preds = %2
  %13 = load i32, ptr %4, align 4, !tbaa !20
  %14 = call ptr @mbedtls_md_info_from_type(i32 noundef %13)
  store ptr %14, ptr %6, align 8, !tbaa !29
  %15 = icmp eq ptr %14, null
  br i1 %15, label %16, label %17

16:                                               ; preds = %12
  store i32 -1, ptr %3, align 4
  store i32 1, ptr %7, align 4
  br label %22

17:                                               ; preds = %12
  %18 = load ptr, ptr %6, align 8, !tbaa !29
  %19 = call zeroext i8 @mbedtls_md_get_size(ptr noundef %18)
  %20 = zext i8 %19 to i64
  %21 = load ptr, ptr %5, align 8, !tbaa !27
  store i64 %20, ptr %21, align 8, !tbaa !23
  store i32 0, ptr %3, align 4
  store i32 1, ptr %7, align 4
  br label %22

22:                                               ; preds = %17, %16, %11
  call void @llvm.lifetime.end.p0(i64 8, ptr %6) #5
  %23 = load i32, ptr %3, align 4
  ret i32 %23
}

; Function Attrs: mustprogress uwtable
define hidden i32 @mbedtls_pk_verify_restartable(ptr noundef %0, i32 noundef %1, ptr noundef %2, i64 noundef %3, ptr noundef %4, i64 noundef %5, ptr noundef %6) #1 {
  %8 = alloca i32, align 4
  %9 = alloca ptr, align 8
  %10 = alloca i32, align 4
  %11 = alloca ptr, align 8
  %12 = alloca i64, align 8
  %13 = alloca ptr, align 8
  %14 = alloca i64, align 8
  %15 = alloca ptr, align 8
  store ptr %0, ptr %9, align 8, !tbaa !3
  store i32 %1, ptr %10, align 4, !tbaa !20
  store ptr %2, ptr %11, align 8, !tbaa !22
  store i64 %3, ptr %12, align 8, !tbaa !23
  store ptr %4, ptr %13, align 8, !tbaa !22
  store i64 %5, ptr %14, align 8, !tbaa !23
  store ptr %6, ptr %15, align 8, !tbaa !25
  br label %16

16:                                               ; preds = %7
  br label %17

17:                                               ; preds = %16
  br label %18

18:                                               ; preds = %17
  br label %19

19:                                               ; preds = %18
  br label %20

20:                                               ; preds = %19
  br label %21

21:                                               ; preds = %20
  %22 = load ptr, ptr %9, align 8, !tbaa !3
  %23 = getelementptr inbounds nuw %struct.mbedtls_pk_context, ptr %22, i32 0, i32 0
  %24 = load ptr, ptr %23, align 8, !tbaa !8
  %25 = icmp eq ptr %24, null
  br i1 %25, label %30, label %26

26:                                               ; preds = %21
  %27 = load i32, ptr %10, align 4, !tbaa !20
  %28 = call noundef i32 @_ZL17pk_hashlen_helper17mbedtls_md_type_tPm(i32 noundef %27, ptr noundef %12)
  %29 = icmp ne i32 %28, 0
  br i1 %29, label %30, label %31

30:                                               ; preds = %26, %21
  store i32 -16000, ptr %8, align 4
  br label %54

31:                                               ; preds = %26
  %32 = load ptr, ptr %9, align 8, !tbaa !3
  %33 = getelementptr inbounds nuw %struct.mbedtls_pk_context, ptr %32, i32 0, i32 0
  %34 = load ptr, ptr %33, align 8, !tbaa !8
  %35 = getelementptr inbounds nuw %struct.mbedtls_pk_info_t, ptr %34, i32 0, i32 4
  %36 = load ptr, ptr %35, align 8, !tbaa !26
  %37 = icmp eq ptr %36, null
  br i1 %37, label %38, label %39

38:                                               ; preds = %31
  store i32 -16128, ptr %8, align 4
  br label %54

39:                                               ; preds = %31
  %40 = load ptr, ptr %9, align 8, !tbaa !3
  %41 = getelementptr inbounds nuw %struct.mbedtls_pk_context, ptr %40, i32 0, i32 0
  %42 = load ptr, ptr %41, align 8, !tbaa !8
  %43 = getelementptr inbounds nuw %struct.mbedtls_pk_info_t, ptr %42, i32 0, i32 4
  %44 = load ptr, ptr %43, align 8, !tbaa !26
  %45 = load ptr, ptr %9, align 8, !tbaa !3
  %46 = getelementptr inbounds nuw %struct.mbedtls_pk_context, ptr %45, i32 0, i32 1
  %47 = load ptr, ptr %46, align 8, !tbaa !11
  %48 = load i32, ptr %10, align 4, !tbaa !20
  %49 = load ptr, ptr %11, align 8, !tbaa !22
  %50 = load i64, ptr %12, align 8, !tbaa !23
  %51 = load ptr, ptr %13, align 8, !tbaa !22
  %52 = load i64, ptr %14, align 8, !tbaa !23
  %53 = call noundef i32 %44(ptr noundef %47, i32 noundef %48, ptr noundef %49, i64 noundef %50, ptr noundef %51, i64 noundef %52)
  store i32 %53, ptr %8, align 4
  br label %54

54:                                               ; preds = %39, %38, %30
  %55 = load i32, ptr %8, align 4
  ret i32 %55
}