; Function Attrs: mustprogress uwtable
define hidden noundef i32 @mbedtls_pk_verify_restartable(ptr noundef readonly captures(none) %0, i32 noundef %1, ptr noundef %2, i64 noundef %3, ptr noundef %4, i64 noundef %5, ptr noundef readnone captures(none) %6) local_unnamed_addr #1 {
  %8 = load ptr, ptr %0, align 8, !tbaa !3
  %9 = icmp eq ptr %8, null
  br i1 %9, label %_ZL17pk_hashlen_helper17mbedtls_md_type_tPm.exit, label %10

10:                                               ; preds = %7
  %.not.i = icmp eq i64 %3, 0
  br i1 %.not.i, label %11, label %17

11:                                               ; preds = %10
  %12 = tail call ptr @mbedtls_md_info_from_type(i32 noundef %1)
  %13 = icmp eq ptr %12, null
  br i1 %13, label %_ZL17pk_hashlen_helper17mbedtls_md_type_tPm.exit, label %14

14:                                               ; preds = %11
  %15 = tail call zeroext i8 @mbedtls_md_get_size(ptr noundef nonnull %12)
  %16 = zext i8 %15 to i64
  %.pre = load ptr, ptr %0, align 8, !tbaa !3
  br label %17

17:                                               ; preds = %14, %10
  %18 = phi ptr [ %8, %10 ], [ %.pre, %14 ]
  %.011.ph = phi i64 [ %3, %10 ], [ %16, %14 ]
  %19 = getelementptr inbounds nuw i8, ptr %18, i64 32
  %20 = load ptr, ptr %19, align 8, !tbaa !16
  %21 = icmp eq ptr %20, null
  br i1 %21, label %_ZL17pk_hashlen_helper17mbedtls_md_type_tPm.exit, label %22

22:                                               ; preds = %17
  %23 = getelementptr inbounds nuw i8, ptr %0, i64 8
  %24 = load ptr, ptr %23, align 8, !tbaa !13
  %25 = tail call noundef i32 %20(ptr noundef %24, i32 noundef %1, ptr noundef %2, i64 noundef %.011.ph, ptr noundef %4, i64 noundef %5)
  br label %_ZL17pk_hashlen_helper17mbedtls_md_type_tPm.exit

_ZL17pk_hashlen_helper17mbedtls_md_type_tPm.exit: ; preds = %11, %17, %7, %22
  %.0 = phi i32 [ %25, %22 ], [ -16000, %7 ], [ -16128, %17 ], [ -16000, %11 ]
  ret i32 %.0
}